Certificate:
    Data:
        Version: 3 (0x2)
        Serial Number: 4098 (0x1002)
    Signature Algorithm: sha256WithRSAEncryption
        Issuer: C=CN, ST=Hubei, L=Wuhan, O=Hust, OU=cse, CN=wmz
        Validity
            Not Before: Apr 18 15:19:35 2020 GMT
            Not After : Apr 18 15:19:35 2021 GMT
        Subject: C=CN, ST=Hubei, O=Hust, OU=cse, CN=wmzserver
        Subject Public Key Info:
            Public Key Algorithm: rsaEncryption
                Public-Key: (1024 bit)
                Modulus:
                    00:eb:cf:46:ce:8e:9d:a6:8b:e6:84:89:9b:80:04:
                    57:3f:22:9b:9f:75:77:68:d7:79:0f:8b:d1:ff:ee:
                    8a:cb:c0:9e:cf:74:36:a3:73:44:08:70:9c:de:e9:
                    48:f0:8a:93:60:fd:6d:ed:bb:ab:85:96:2c:57:49:
                    04:64:76:a6:4e:9d:34:cd:5e:78:48:98:8f:ad:31:
                    65:3f:91:25:0f:dd:64:05:cd:d1:b9:94:93:de:d4:
                    61:18:0f:a2:af:b3:5f:41:c5:58:17:8d:7e:a5:4d:
                    07:b2:0b:bb:26:c6:7b:73:89:8a:32:37:ed:04:6f:
                    11:72:45:1c:c7:48:03:8a:75
                Exponent: 65537 (0x10001)
        X509v3 extensions:
            X509v3 Basic Constraints: 
                CA:FALSE
            Netscape Comment: 
                OpenSSL Generated Certificate
            X509v3 Subject Key Identifier: 
                77:8F:81:B3:41:58:6C:87:5D:C4:1A:3F:2C:8E:D9:BB:20:7B:F0:31
            X509v3 Authority Key Identifier: 
                keyid:19:49:43:BF:AB:6E:A4:F2:3F:7D:1F:DC:C7:E5:D3:11:51:08:A1:97

    Signature Algorithm: sha256WithRSAEncryption
         66:b1:2e:d5:89:69:52:5f:90:98:0b:bb:3f:59:a3:70:ed:86:
         20:df:5a:09:4e:81:1b:d3:df:0d:04:5f:e6:fb:1a:23:b4:be:
         5f:00:1b:82:49:04:e3:7c:30:88:af:bb:98:e0:b5:34:a2:26:
         54:b1:cb:d3:e8:94:a8:15:20:c0:b0:c5:9f:2c:4e:09:d0:34:
         cd:08:59:97:b5:f1:e1:c2:31:cc:e6:e5:ed:0f:5f:6a:68:19:
         23:10:03:70:c9:68:b4:03:68:75:31:e4:87:4a:9d:52:90:4b:
         37:77:ae:9e:ce:ac:ec:b1:12:ee:8b:3e:43:9f:a6:f0:16:aa:
         ee:9c
-----BEGIN CERTIFICATE-----
MIICmDCCAgGgAwIBAgICEAIwDQYJKoZIhvcNAQELBQAwWDELMAkGA1UEBhMCQ04x
DjAMBgNVBAgMBUh1YmVpMQ4wDAYDVQQHDAVXdWhhbjENMAsGA1UECgwESHVzdDEM
MAoGA1UECwwDY3NlMQwwCgYDVQQDDAN3bXowHhcNMjAwNDE4MTUxOTM1WhcNMjEw
NDE4MTUxOTM1WjBOMQswCQYDVQQGEwJDTjEOMAwGA1UECAwFSHViZWkxDTALBgNV
BAoMBEh1c3QxDDAKBgNVBAsMA2NzZTESMBAGA1UEAwwJd216c2VydmVyMIGfMA0G
CSqGSIb3DQEBAQUAA4GNADCBiQKBgQDrz0bOjp2mi+aEiZuABFc/IpufdXdo13kP
i9H/7orLwJ7PdDajc0QIcJze6UjwipNg/W3tu6uFlixXSQRkdqZOnTTNXnhImI+t
MWU/kSUP3WQFzdG5lJPe1GEYD6Kvs19BxVgXjX6lTQeyC7smxntziYoyN+0EbxFy
RRzHSAOKdQIDAQABo3sweTAJBgNVHRMEAjAAMCwGCWCGSAGG+EIBDQQfFh1PcGVu
U1NMIEdlbmVyYXRlZCBDZXJ0aWZpY2F0ZTAdBgNVHQ4EFgQUd4+Bs0FYbIddxBo/
LI7ZuyB78DEwHwYDVR0jBBgwFoAUGUlDv6tupPI/fR/cx+XTEVEIoZcwDQYJKoZI
hvcNAQELBQADgYEAZrEu1YlpUl+QmAu7P1mjcO2GIN9aCU6BG9PfDQRf5vsaI7S+
XwAbgkkE43wwiK+7mOC1NKImVLHL0+iUqBUgwLDFnyxOCdA0zQhZl7Xx4cIxzObl
7Q9famgZIxADcMlotANodTHkh0qdUpBLN3euns6s7LES7os+Q5+m8Baq7pw=
-----END CERTIFICATE-----
