Certificate:
    Data:
        Version: 3 (0x2)
        Serial Number: 4099 (0x1003)
    Signature Algorithm: sha256WithRSAEncryption
        Issuer: C=CN, ST=Hubei, L=Wuhan, O=Hust, OU=cse, CN=wmz
        Validity
            Not Before: Apr 18 15:22:23 2020 GMT
            Not After : Apr 18 15:22:23 2021 GMT
        Subject: C=CN, ST=Hubei, O=Hust, OU=cse, CN=wmzclient
        Subject Public Key Info:
            Public Key Algorithm: rsaEncryption
                Public-Key: (1024 bit)
                Modulus:
                    00:c6:a7:01:b8:ab:e0:e1:8a:40:08:89:21:9f:ce:
                    38:a3:d2:6b:b4:3d:45:d4:0c:9b:5d:44:98:ba:cb:
                    f1:ba:ac:d8:90:4c:17:0e:af:53:71:7c:58:a8:5c:
                    26:8f:53:dc:66:57:69:26:d9:b3:c0:88:ff:b7:13:
                    cd:a0:ec:43:55:6a:49:2f:f8:22:37:11:b9:32:18:
                    e8:e5:cb:9e:00:61:17:36:4f:f1:16:0d:ad:d4:93:
                    63:58:e3:66:a1:d1:18:e9:1d:ee:79:8f:bd:d4:6e:
                    27:7b:90:d7:2c:28:aa:8a:66:ee:74:88:42:24:0a:
                    4e:70:7a:85:a0:8f:9f:15:b9
                Exponent: 65537 (0x10001)
        X509v3 extensions:
            X509v3 Basic Constraints: 
                CA:FALSE
            Netscape Comment: 
                OpenSSL Generated Certificate
            X509v3 Subject Key Identifier: 
                23:D1:C5:65:13:A1:F9:59:99:48:E4:B0:CA:A6:55:98:82:E4:91:9C
            X509v3 Authority Key Identifier: 
                keyid:19:49:43:BF:AB:6E:A4:F2:3F:7D:1F:DC:C7:E5:D3:11:51:08:A1:97

    Signature Algorithm: sha256WithRSAEncryption
         05:df:86:13:de:89:7d:de:22:a9:c5:96:74:32:ee:48:63:53:
         72:6a:e5:1f:4b:cd:92:50:6b:92:5d:d4:6e:9f:88:a3:59:4f:
         bf:8d:7f:01:30:62:18:08:b7:8b:3e:52:23:c3:e4:3d:c1:f5:
         70:d3:09:a3:18:ec:0b:39:13:2d:2d:e1:65:d4:3f:f1:32:be:
         05:16:fa:47:e1:0b:00:65:54:1c:23:06:cc:d3:72:df:e6:78:
         70:e9:91:f6:e5:08:b7:67:41:f8:9d:1b:25:44:59:68:25:20:
         d4:ff:15:53:e7:52:4a:dd:8c:85:ca:e3:f3:95:bf:ef:2e:5b:
         d9:58
-----BEGIN CERTIFICATE-----
MIICmDCCAgGgAwIBAgICEAMwDQYJKoZIhvcNAQELBQAwWDELMAkGA1UEBhMCQ04x
DjAMBgNVBAgMBUh1YmVpMQ4wDAYDVQQHDAVXdWhhbjENMAsGA1UECgwESHVzdDEM
MAoGA1UECwwDY3NlMQwwCgYDVQQDDAN3bXowHhcNMjAwNDE4MTUyMjIzWhcNMjEw
NDE4MTUyMjIzWjBOMQswCQYDVQQGEwJDTjEOMAwGA1UECAwFSHViZWkxDTALBgNV
BAoMBEh1c3QxDDAKBgNVBAsMA2NzZTESMBAGA1UEAwwJd216Y2xpZW50MIGfMA0G
CSqGSIb3DQEBAQUAA4GNADCBiQKBgQDGpwG4q+DhikAIiSGfzjij0mu0PUXUDJtd
RJi6y/G6rNiQTBcOr1NxfFioXCaPU9xmV2km2bPAiP+3E82g7ENVakkv+CI3Ebky
GOjly54AYRc2T/EWDa3Uk2NY42ah0RjpHe55j73Ubid7kNcsKKqKZu50iEIkCk5w
eoWgj58VuQIDAQABo3sweTAJBgNVHRMEAjAAMCwGCWCGSAGG+EIBDQQfFh1PcGVu
U1NMIEdlbmVyYXRlZCBDZXJ0aWZpY2F0ZTAdBgNVHQ4EFgQUI9HFZROh+VmZSOSw
yqZVmILkkZwwHwYDVR0jBBgwFoAUGUlDv6tupPI/fR/cx+XTEVEIoZcwDQYJKoZI
hvcNAQELBQADgYEABd+GE96Jfd4iqcWWdDLuSGNTcmrlH0vNklBrkl3Ubp+Io1lP
v41/ATBiGAi3iz5SI8PkPcH1cNMJoxjsCzkTLS3hZdQ/8TK+BRb6R+ELAGVUHCMG
zNNy3+Z4cOmR9uUIt2dB+J0bJURZaCUg1P8VU+dSSt2Mhcrj85W/7y5b2Vg=
-----END CERTIFICATE-----
