Certificate:
    Data:
        Version: 3 (0x2)
        Serial Number: 4100 (0x1004)
    Signature Algorithm: sha256WithRSAEncryption
        Issuer: C=CN, ST=Hubei, L=Wuhan, O=Hust, OU=cse, CN=wmz
        Validity
            Not Before: Apr 18 15:54:01 2020 GMT
            Not After : Apr 18 15:54:01 2021 GMT
        Subject: C=CN, ST=Hubei, O=Hust, OU=cse, CN=werserver
        Subject Public Key Info:
            Public Key Algorithm: rsaEncryption
                Public-Key: (1024 bit)
                Modulus:
                    00:eb:cf:46:ce:8e:9d:a6:8b:e6:84:89:9b:80:04:
                    57:3f:22:9b:9f:75:77:68:d7:79:0f:8b:d1:ff:ee:
                    8a:cb:c0:9e:cf:74:36:a3:73:44:08:70:9c:de:e9:
                    48:f0:8a:93:60:fd:6d:ed:bb:ab:85:96:2c:57:49:
                    04:64:76:a6:4e:9d:34:cd:5e:78:48:98:8f:ad:31:
                    65:3f:91:25:0f:dd:64:05:cd:d1:b9:94:93:de:d4:
                    61:18:0f:a2:af:b3:5f:41:c5:58:17:8d:7e:a5:4d:
                    07:b2:0b:bb:26:c6:7b:73:89:8a:32:37:ed:04:6f:
                    11:72:45:1c:c7:48:03:8a:75
                Exponent: 65537 (0x10001)
        X509v3 extensions:
            X509v3 Basic Constraints: 
                CA:FALSE
            Netscape Comment: 
                OpenSSL Generated Certificate
            X509v3 Subject Key Identifier: 
                77:8F:81:B3:41:58:6C:87:5D:C4:1A:3F:2C:8E:D9:BB:20:7B:F0:31
            X509v3 Authority Key Identifier: 
                keyid:19:49:43:BF:AB:6E:A4:F2:3F:7D:1F:DC:C7:E5:D3:11:51:08:A1:97

    Signature Algorithm: sha256WithRSAEncryption
         67:52:3c:51:96:ec:ef:76:55:40:90:33:aa:e5:db:8a:81:51:
         73:ca:0b:a2:09:f4:bd:79:49:5f:d7:45:53:c2:37:08:e3:d7:
         70:85:50:d8:c5:17:d0:94:44:ca:2d:9f:62:09:05:92:cc:15:
         28:6a:7a:26:7e:b4:a4:c6:b2:d1:1f:3c:52:67:4c:a4:64:71:
         b5:df:f1:1e:44:7d:eb:6c:11:3a:74:a8:37:7a:29:18:43:bf:
         1c:e1:ac:60:e0:ce:da:04:bc:cd:ff:53:96:a3:bb:b2:cb:03:
         70:7a:00:88:9b:70:e4:46:64:b7:97:b3:11:1d:c9:0b:f1:43:
         60:22
-----BEGIN CERTIFICATE-----
MIICmDCCAgGgAwIBAgICEAQwDQYJKoZIhvcNAQELBQAwWDELMAkGA1UEBhMCQ04x
DjAMBgNVBAgMBUh1YmVpMQ4wDAYDVQQHDAVXdWhhbjENMAsGA1UECgwESHVzdDEM
MAoGA1UECwwDY3NlMQwwCgYDVQQDDAN3bXowHhcNMjAwNDE4MTU1NDAxWhcNMjEw
NDE4MTU1NDAxWjBOMQswCQYDVQQGEwJDTjEOMAwGA1UECAwFSHViZWkxDTALBgNV
BAoMBEh1c3QxDDAKBgNVBAsMA2NzZTESMBAGA1UEAwwJd2Vyc2VydmVyMIGfMA0G
CSqGSIb3DQEBAQUAA4GNADCBiQKBgQDrz0bOjp2mi+aEiZuABFc/IpufdXdo13kP
i9H/7orLwJ7PdDajc0QIcJze6UjwipNg/W3tu6uFlixXSQRkdqZOnTTNXnhImI+t
MWU/kSUP3WQFzdG5lJPe1GEYD6Kvs19BxVgXjX6lTQeyC7smxntziYoyN+0EbxFy
RRzHSAOKdQIDAQABo3sweTAJBgNVHRMEAjAAMCwGCWCGSAGG+EIBDQQfFh1PcGVu
U1NMIEdlbmVyYXRlZCBDZXJ0aWZpY2F0ZTAdBgNVHQ4EFgQUd4+Bs0FYbIddxBo/
LI7ZuyB78DEwHwYDVR0jBBgwFoAUGUlDv6tupPI/fR/cx+XTEVEIoZcwDQYJKoZI
hvcNAQELBQADgYEAZ1I8UZbs73ZVQJAzquXbioFRc8oLogn0vXlJX9dFU8I3COPX
cIVQ2MUX0JREyi2fYgkFkswVKGp6Jn60pMay0R88UmdMpGRxtd/xHkR962wROnSo
N3opGEO/HOGsYODO2gS8zf9TlqO7sssDcHoAiJtw5EZkt5ezER3JC/FDYCI=
-----END CERTIFICATE-----
