Certificate:
    Data:
        Version: 3 (0x2)
        Serial Number: 4096 (0x1000)
        Signature Algorithm: sha256WithRSAEncryption
        Issuer: C=cn, ST=hubei, L=wuhan, O=hust, OU=cse, CN=wangyx/emailAddress=refusetotellyou@qq.com
        Validity
            Not Before: May 14 03:10:25 2022 GMT
            Not After : May 14 03:10:25 2023 GMT
        Subject: C=cn, ST=hubei, L=wuhan, O=hust, OU=cse, CN=wangyx/emailAddress=refusetotellyou@qq.com
        Subject Public Key Info:
            Public Key Algorithm: rsaEncryption
                RSA Public-Key: (2048 bit)
                Modulus:
                    00:9b:25:d3:29:31:26:fd:25:9d:8a:36:72:90:8e:
                    98:8f:78:40:8b:a2:c6:81:88:81:0b:cf:2d:21:c7:
                    34:30:3b:b4:b2:1c:5f:d4:9d:a7:b4:66:5e:27:ff:
                    b2:18:8a:4d:ad:8a:c2:96:07:b5:fd:be:ec:aa:3b:
                    ce:6c:ac:b1:67:84:49:c5:f9:22:58:9d:01:63:65:
                    83:50:b0:f7:9d:96:6c:01:ca:a5:af:0c:f2:97:64:
                    10:1c:2f:da:01:66:df:66:9a:f8:a2:08:43:13:fc:
                    54:1e:ab:54:fd:d3:74:e6:86:28:e3:fe:e2:56:a6:
                    b5:9e:fa:a0:96:3c:13:52:52:08:d0:c5:0a:ed:77:
                    37:44:2d:35:2e:6a:a9:0a:7a:cf:54:de:32:48:d6:
                    1c:6d:05:d0:74:79:8c:3b:75:f6:ac:76:bf:f2:1f:
                    ad:59:97:91:7b:7f:5b:18:0b:22:0b:06:2b:ea:38:
                    a5:17:00:27:98:15:37:de:35:72:ec:f8:1d:a2:1c:
                    91:2d:6f:56:14:74:12:84:da:3a:28:ad:de:ca:98:
                    81:0a:3d:d4:46:97:dd:f6:40:06:7a:fe:1d:e3:5a:
                    72:e0:20:39:14:05:6c:cf:45:09:3f:e8:5d:8b:a4:
                    2e:3e:9c:3f:94:34:ac:e2:18:13:95:aa:ab:be:62:
                    39:4f
                Exponent: 65537 (0x10001)
        X509v3 extensions:
            X509v3 Basic Constraints: 
                CA:FALSE
            Netscape Comment: 
                OpenSSL Generated Certificate
            X509v3 Subject Key Identifier: 
                B1:EA:20:19:E6:94:73:90:02:05:78:51:CF:63:E9:6E:02:05:8B:40
            X509v3 Authority Key Identifier: 
                keyid:C3:74:85:22:02:DD:6F:61:20:C2:78:B3:25:08:17:F7:20:82:3C:B9

    Signature Algorithm: sha256WithRSAEncryption
         89:e0:8e:18:b5:06:0a:be:b3:cb:18:26:ec:19:8a:62:4b:0b:
         7f:d2:3e:7b:77:1e:b5:57:63:07:dd:02:21:a2:53:8e:e8:c1:
         2e:c7:01:e5:15:0d:08:40:2f:72:c7:69:fc:70:04:b9:b8:42:
         21:d8:52:6e:53:b6:f3:48:dd:e6:ce:21:f8:de:25:28:87:69:
         7b:e7:b7:7b:5c:2d:44:c6:47:a1:a2:0f:a8:fe:b5:cf:f1:18:
         13:48:27:58:e5:e8:10:b7:14:cb:5e:9d:31:7c:1b:1a:1c:9b:
         71:51:85:15:d0:a6:4f:fa:02:22:ab:a2:13:db:5a:00:d3:18:
         62:6f:45:ac:98:a3:20:2d:38:a9:f9:3e:8c:57:d7:23:23:7f:
         32:70:0a:27:0d:43:24:de:d8:05:7a:81:19:2f:67:50:ab:45:
         f8:85:08:07:29:b2:4b:fb:f6:04:a8:ec:d9:3d:85:9b:67:d3:
         02:86:30:b8:0c:27:fe:4e:13:1e:e8:ea:95:3d:51:88:aa:ca:
         15:a3:bd:53:fb:fd:bb:d7:7d:62:9f:bc:00:59:e5:82:78:ad:
         2b:88:bf:41:36:66:85:3f:58:77:83:9e:ef:e2:e0:3c:be:af:
         04:15:8c:b7:d6:28:ff:4e:82:08:5f:ed:7a:b2:a2:e9:bf:b8:
         d1:10:77:7f:63:82:de:05:23:ae:14:97:35:c5:4b:0f:d3:f1:
         57:db:ca:eb:c0:33:d6:06:5d:78:9d:60:c2:68:45:3a:d1:36:
         d8:4b:1c:90:fa:49:36:ca:78:a8:bf:fb:02:4f:9a:be:c4:b3:
         c2:2b:43:67:45:fe:86:06:b3:2a:82:89:e7:88:1c:5e:8e:3e:
         25:db:e4:5b:60:24:24:e3:a2:1d:ac:79:ad:b1:b7:e1:94:12:
         06:31:1d:db:95:bc:f2:14:d4:40:ab:b5:de:d3:2b:16:ed:cd:
         69:2d:9d:02:68:ab:3b:ca:6f:ed:14:0f:61:c9:d2:55:87:32:
         fb:fc:2c:cb:5c:31:74:66:14:72:ee:3f:ee:4c:e3:f1:56:6b:
         73:65:e5:5c:d3:8a:4e:22:2b:3d:77:aa:b2:f5:2b:55:f8:80:
         0f:1b:0b:c1:f8:f3:ff:92:32:70:1e:e6:7e:42:a2:36:65:e4:
         5e:b1:d8:92:81:4f:83:e0:eb:95:d9:1e:0d:8f:b6:92:03:90:
         32:31:c1:dc:f8:21:33:13:34:27:b5:5e:87:ea:73:5c:df:07:
         9d:dd:1f:73:fc:67:17:5d:35:c0:f2:6a:ca:d4:65:ee:cb:27:
         9c:0f:a0:c7:d3:b0:b0:0c:bc:b6:2b:c6:b1:95:00:fd:a0:db:
         88:3d:a3:21:5d:76:e8:62
-----BEGIN CERTIFICATE-----
MIIE/TCCAuWgAwIBAgICEAAwDQYJKoZIhvcNAQELBQAwgYIxCzAJBgNVBAYTAmNu
MQ4wDAYDVQQIDAVodWJlaTEOMAwGA1UEBwwFd3VoYW4xDTALBgNVBAoMBGh1c3Qx
DDAKBgNVBAsMA2NzZTEPMA0GA1UEAwwGd2FuZ3l4MSUwIwYJKoZIhvcNAQkBFhZy
ZWZ1c2V0b3RlbGx5b3VAcXEuY29tMB4XDTIyMDUxNDAzMTAyNVoXDTIzMDUxNDAz
MTAyNVowgYIxCzAJBgNVBAYTAmNuMQ4wDAYDVQQIDAVodWJlaTEOMAwGA1UEBwwF
d3VoYW4xDTALBgNVBAoMBGh1c3QxDDAKBgNVBAsMA2NzZTEPMA0GA1UEAwwGd2Fu
Z3l4MSUwIwYJKoZIhvcNAQkBFhZyZWZ1c2V0b3RlbGx5b3VAcXEuY29tMIIBIjAN
BgkqhkiG9w0BAQEFAAOCAQ8AMIIBCgKCAQEAmyXTKTEm/SWdijZykI6Yj3hAi6LG
gYiBC88tIcc0MDu0shxf1J2ntGZeJ/+yGIpNrYrClge1/b7sqjvObKyxZ4RJxfki
WJ0BY2WDULD3nZZsAcqlrwzyl2QQHC/aAWbfZpr4oghDE/xUHqtU/dN05oYo4/7i
Vqa1nvqgljwTUlII0MUK7Xc3RC01LmqpCnrPVN4ySNYcbQXQdHmMO3X2rHa/8h+t
WZeRe39bGAsiCwYr6jilFwAnmBU33jVy7PgdohyRLW9WFHQShNo6KK3eypiBCj3U
Rpfd9kAGev4d41py4CA5FAVsz0UJP+hdi6QuPpw/lDSs4hgTlaqrvmI5TwIDAQAB
o3sweTAJBgNVHRMEAjAAMCwGCWCGSAGG+EIBDQQfFh1PcGVuU1NMIEdlbmVyYXRl
ZCBDZXJ0aWZpY2F0ZTAdBgNVHQ4EFgQUseogGeaUc5ACBXhRz2PpbgIFi0AwHwYD
VR0jBBgwFoAUw3SFIgLdb2EgwnizJQgX9yCCPLkwDQYJKoZIhvcNAQELBQADggIB
AIngjhi1Bgq+s8sYJuwZimJLC3/SPnt3HrVXYwfdAiGiU47owS7HAeUVDQhAL3LH
afxwBLm4QiHYUm5TtvNI3ebOIfjeJSiHaXvnt3tcLUTGR6GiD6j+tc/xGBNIJ1jl
6BC3FMtenTF8Gxocm3FRhRXQpk/6AiKrohPbWgDTGGJvRayYoyAtOKn5PoxX1yMj
fzJwCicNQyTe2AV6gRkvZ1CrRfiFCAcpskv79gSo7Nk9hZtn0wKGMLgMJ/5OEx7o
6pU9UYiqyhWjvVP7/bvXfWKfvABZ5YJ4rSuIv0E2ZoU/WHeDnu/i4Dy+rwQVjLfW
KP9Ogghf7Xqyoum/uNEQd39jgt4FI64UlzXFSw/T8VfbyuvAM9YGXXidYMJoRTrR
NthLHJD6STbKeKi/+wJPmr7Es8IrQ2dF/oYGsyqCieeIHF6OPiXb5FtgJCTjoh2s
ea2xt+GUEgYxHduVvPIU1ECrtd7TKxbtzWktnQJoqzvKb+0UD2HJ0lWHMvv8LMtc
MXRmFHLuP+5M4/FWa3Nl5VzTik4iKz13qrL1K1X4gA8bC8H48/+SMnAe5n5CojZl
5F6x2JKBT4Pg65XZHg2PtpIDkDIxwdz4ITMTNCe1Xofqc1zfB53dH3P8ZxddNcDy
asrUZe7LJ5wPoMfTsLAMvLYrxrGVAP2g24g9oyFdduhi
-----END CERTIFICATE-----
