Certificate:
    Data:
        Version: 3 (0x2)
        Serial Number: 4097 (0x1001)
        Signature Algorithm: sha256WithRSAEncryption
        Issuer: C=cn, ST=hubei, L=wuhan, O=hust, OU=cse, CN=wangyx/emailAddress=refusetotellyou@qq.com
        Validity
            Not Before: May 14 03:19:09 2022 GMT
            Not After : May 14 03:19:09 2023 GMT
        Subject: C=cn, ST=hubei, L=wuhan, O=hust, OU=cse, CN=wangyx/emailAddress=refusetotellyou@q.com
        Subject Public Key Info:
            Public Key Algorithm: rsaEncryption
                RSA Public-Key: (2048 bit)
                Modulus:
                    00:a7:ec:8f:2a:93:c0:8f:65:7a:b2:0d:1b:2b:c7:
                    37:bf:92:77:af:3a:aa:9c:27:90:52:5a:7e:2d:a6:
                    49:a3:f0:c2:78:e8:a1:87:86:d4:39:f0:c1:e4:22:
                    7d:e1:03:64:2a:fb:2f:39:39:d3:74:c8:28:7c:c8:
                    af:cf:c3:8e:9d:dc:84:53:d1:05:8e:c8:39:6b:46:
                    c1:84:b9:b4:d5:c3:c3:0d:e6:68:8e:9a:81:28:d0:
                    cb:6a:23:28:03:41:95:52:e9:e8:1a:b3:8b:a6:40:
                    d6:96:eb:a5:7c:26:17:d2:42:17:38:7d:59:38:bb:
                    66:43:85:bd:7a:39:bb:65:75:75:b1:bf:47:45:99:
                    87:72:06:27:3a:ea:a8:8e:5b:ae:ae:ce:00:5b:a7:
                    fd:ad:c8:47:86:80:35:98:05:71:a5:f3:9a:77:ce:
                    da:b8:8a:53:b2:50:43:e2:d7:82:6d:9a:c3:fe:51:
                    c9:6a:34:65:09:26:41:cc:fb:1a:eb:77:f9:06:70:
                    74:8e:1f:86:c7:68:d4:a9:6c:96:c9:56:5a:af:fb:
                    57:81:2d:f1:f8:f4:a2:e2:21:0f:2b:62:fb:d2:6c:
                    1e:27:00:85:89:b1:83:16:61:a0:eb:e4:ef:05:3a:
                    3e:f1:c7:e8:9a:ec:4b:7f:6d:66:1c:e5:92:c6:07:
                    ea:89
                Exponent: 65537 (0x10001)
        X509v3 extensions:
            X509v3 Basic Constraints: 
                CA:FALSE
            Netscape Comment: 
                OpenSSL Generated Certificate
            X509v3 Subject Key Identifier: 
                0D:87:D0:76:E5:DF:19:DA:12:14:54:0A:8F:1B:CF:C9:6C:82:BD:1C
            X509v3 Authority Key Identifier: 
                keyid:C3:74:85:22:02:DD:6F:61:20:C2:78:B3:25:08:17:F7:20:82:3C:B9

    Signature Algorithm: sha256WithRSAEncryption
         ce:18:f3:b3:d8:e4:ba:cb:ec:34:50:7c:14:29:41:a9:5a:2b:
         cd:12:b8:8b:f4:50:5b:d4:32:51:35:01:cb:79:38:33:c2:20:
         c1:77:a4:32:ce:29:f2:4b:7f:e0:fa:e2:1a:70:5f:26:7d:1a:
         da:6a:31:2b:c6:33:e1:df:df:71:85:a4:df:d0:ed:ee:a6:6e:
         69:0d:ad:63:2b:30:03:b8:cf:6e:e7:af:16:81:a6:88:a4:a7:
         08:b5:20:43:8b:2b:26:95:31:f7:ae:33:eb:38:d7:f6:21:7a:
         07:5d:a1:37:8b:47:b4:11:12:9d:e8:84:88:de:bd:f9:ec:18:
         16:78:4b:92:3e:65:62:e3:08:1c:42:15:30:a1:2a:be:0c:38:
         e7:b2:68:d5:3e:a6:33:17:bf:0e:9c:1e:e2:38:ed:d0:9f:c0:
         f6:74:04:80:03:b8:d1:0e:dd:bc:09:8c:3b:f7:12:a6:e8:44:
         54:ea:26:a2:de:0c:18:bb:0e:0f:cf:dc:f3:02:a4:a2:0f:81:
         58:87:89:c7:18:5f:09:16:ca:dd:68:91:60:53:ad:2e:a7:67:
         02:cd:ca:de:d5:09:06:e1:34:ac:1a:49:59:b5:78:ab:61:19:
         6c:eb:58:ab:99:06:52:ea:55:2b:d6:ad:5a:6e:ae:6d:a5:69:
         b0:b0:ab:02:35:e6:1f:ec:14:38:d8:2c:ce:b6:18:21:e5:42:
         f2:c9:31:51:46:0f:4a:f5:3e:73:dc:cc:cb:ce:18:67:67:0d:
         74:75:1c:07:04:c0:eb:eb:ea:4b:25:25:67:1a:7a:c1:38:cb:
         50:83:52:90:18:45:04:7e:6d:d4:41:26:e7:4e:89:cb:fc:5e:
         f3:81:92:30:d8:5a:28:e6:9e:95:cb:88:16:82:c4:09:cd:e4:
         bd:11:d3:32:0b:8e:d6:ae:e3:c1:37:3e:a4:a6:02:c6:ba:2b:
         f8:64:ab:16:fe:8f:2f:2b:ff:fb:5a:f2:8d:78:98:21:cd:9a:
         41:44:49:6e:8c:2e:39:f7:26:b3:4a:54:52:3f:77:a4:3f:82:
         3b:82:e0:01:cc:13:73:4e:73:80:a2:06:f8:f2:ce:54:ef:26:
         75:3a:9d:ba:20:46:8a:05:28:3d:e6:60:ab:ae:6b:d1:74:a2:
         87:36:97:c4:33:74:e9:64:e2:d1:f0:a7:6e:dd:f1:7c:55:27:
         a2:cb:46:19:f4:54:98:1e:ff:9c:28:de:bb:60:2d:85:10:12:
         54:4c:be:05:aa:04:49:62:e7:d1:14:e0:29:8f:a2:8b:1d:af:
         c7:53:7d:5f:51:ab:4d:c5:ff:31:9c:76:a7:ec:20:71:8e:a3:
         47:a9:24:20:c8:bf:be:76
-----BEGIN CERTIFICATE-----
MIIE/DCCAuSgAwIBAgICEAEwDQYJKoZIhvcNAQELBQAwgYIxCzAJBgNVBAYTAmNu
MQ4wDAYDVQQIDAVodWJlaTEOMAwGA1UEBwwFd3VoYW4xDTALBgNVBAoMBGh1c3Qx
DDAKBgNVBAsMA2NzZTEPMA0GA1UEAwwGd2FuZ3l4MSUwIwYJKoZIhvcNAQkBFhZy
ZWZ1c2V0b3RlbGx5b3VAcXEuY29tMB4XDTIyMDUxNDAzMTkwOVoXDTIzMDUxNDAz
MTkwOVowgYExCzAJBgNVBAYTAmNuMQ4wDAYDVQQIDAVodWJlaTEOMAwGA1UEBwwF
d3VoYW4xDTALBgNVBAoMBGh1c3QxDDAKBgNVBAsMA2NzZTEPMA0GA1UEAwwGd2Fu
Z3l4MSQwIgYJKoZIhvcNAQkBFhVyZWZ1c2V0b3RlbGx5b3VAcS5jb20wggEiMA0G
CSqGSIb3DQEBAQUAA4IBDwAwggEKAoIBAQCn7I8qk8CPZXqyDRsrxze/knevOqqc
J5BSWn4tpkmj8MJ46KGHhtQ58MHkIn3hA2Qq+y85OdN0yCh8yK/Pw46d3IRT0QWO
yDlrRsGEubTVw8MN5miOmoEo0MtqIygDQZVS6egas4umQNaW66V8JhfSQhc4fVk4
u2ZDhb16ObtldXWxv0dFmYdyBic66qiOW66uzgBbp/2tyEeGgDWYBXGl85p3ztq4
ilOyUEPi14JtmsP+UclqNGUJJkHM+xrrd/kGcHSOH4bHaNSpbJbJVlqv+1eBLfH4
9KLiIQ8rYvvSbB4nAIWJsYMWYaDr5O8FOj7xx+ia7Et/bWYc5ZLGB+qJAgMBAAGj
ezB5MAkGA1UdEwQCMAAwLAYJYIZIAYb4QgENBB8WHU9wZW5TU0wgR2VuZXJhdGVk
IENlcnRpZmljYXRlMB0GA1UdDgQWBBQNh9B25d8Z2hIUVAqPG8/JbIK9HDAfBgNV
HSMEGDAWgBTDdIUiAt1vYSDCeLMlCBf3III8uTANBgkqhkiG9w0BAQsFAAOCAgEA
zhjzs9jkusvsNFB8FClBqVorzRK4i/RQW9QyUTUBy3k4M8IgwXekMs4p8kt/4Pri
GnBfJn0a2moxK8Yz4d/fcYWk39Dt7qZuaQ2tYyswA7jPbuevFoGmiKSnCLUgQ4sr
JpUx964z6zjX9iF6B12hN4tHtBESneiEiN69+ewYFnhLkj5lYuMIHEIVMKEqvgw4
57Jo1T6mMxe/Dpwe4jjt0J/A9nQEgAO40Q7dvAmMO/cSpuhEVOomot4MGLsOD8/c
8wKkog+BWIeJxxhfCRbK3WiRYFOtLqdnAs3K3tUJBuE0rBpJWbV4q2EZbOtYq5kG
UupVK9atWm6ubaVpsLCrAjXmH+wUONgszrYYIeVC8skxUUYPSvU+c9zMy84YZ2cN
dHUcBwTA6+vqSyUlZxp6wTjLUINSkBhFBH5t1EEm506Jy/xe84GSMNhaKOaelcuI
FoLECc3kvRHTMguO1q7jwTc+pKYCxror+GSrFv6PLyv/+1ryjXiYIc2aQURJbowu
Ofcms0pUUj93pD+CO4LgAcwTc05zgKIG+PLOVO8mdTqduiBGigUoPeZgq65r0XSi
hzaXxDN06WTi0fCnbt3xfFUnostGGfRUmB7/nCjeu2AthRASVEy+BaoESWLn0RTg
KY+iix2vx1N9X1GrTcX/MZx2p+wgcY6jR6kkIMi/vnY=
-----END CERTIFICATE-----
