Certificate:
    Data:
        Version: 3 (0x2)
        Serial Number: 4101 (0x1005)
    Signature Algorithm: sha256WithRSAEncryption
        Issuer: C=CN, ST=Hubei, L=Wuhan, O=Hust, OU=cse, CN=wmz
        Validity
            Not Before: Apr 18 16:39:11 2020 GMT
            Not After : Apr 18 16:39:11 2021 GMT
        Subject: C=CN, ST=Hubei, L=Wuhan, O=Hust, OU=cse, CN=wmzserver
        Subject Public Key Info:
            Public Key Algorithm: rsaEncryption
                Public-Key: (1024 bit)
                Modulus:
                    00:ec:a2:58:62:2f:58:5c:46:60:37:e1:92:1f:24:
                    95:84:8d:b0:05:19:29:cc:3d:28:81:03:6f:52:1f:
                    bf:bf:58:f9:32:cf:ac:87:26:a5:1b:d5:11:4e:3c:
                    19:14:b3:93:ac:4a:94:21:8e:2f:37:db:21:e2:2d:
                    6e:f7:0f:4e:a9:e3:95:18:03:d1:fc:55:61:06:67:
                    7e:52:46:01:5a:8e:67:ef:e5:96:18:76:68:95:cc:
                    62:b8:0c:9d:e0:f0:c3:04:c6:32:3a:ad:3b:68:3d:
                    35:07:e7:96:d0:85:d5:73:a3:2f:1a:65:d3:b8:0b:
                    b0:a4:bc:ed:29:26:15:41:2b
                Exponent: 65537 (0x10001)
        X509v3 extensions:
            X509v3 Basic Constraints: 
                CA:FALSE
            Netscape Comment: 
                OpenSSL Generated Certificate
            X509v3 Subject Key Identifier: 
                26:5B:4A:60:30:DA:1A:C9:A1:A6:7D:0D:BF:53:A7:92:BE:66:79:FC
            X509v3 Authority Key Identifier: 
                keyid:19:49:43:BF:AB:6E:A4:F2:3F:7D:1F:DC:C7:E5:D3:11:51:08:A1:97

    Signature Algorithm: sha256WithRSAEncryption
         46:25:28:54:07:0c:26:55:bd:be:cf:74:f6:88:5d:02:b9:dd:
         0e:77:e2:fc:ee:63:fa:e0:36:c6:95:2d:d2:ad:ff:c2:c3:99:
         dc:38:a7:13:19:6f:f7:92:a7:f7:0b:2a:8b:37:a7:77:94:3f:
         33:d8:9c:6a:6f:09:7b:6c:6e:72:fd:4f:c9:a6:0b:f7:05:70:
         46:99:e7:c4:86:b4:52:18:a2:7b:bb:09:58:04:88:d6:5c:e4:
         ee:59:0f:56:4b:17:6e:b0:c9:51:28:94:a5:1a:79:26:40:1f:
         99:e9:1c:64:00:82:a1:b4:5b:b5:de:66:51:3b:e0:79:2e:53:
         3d:bb
-----BEGIN CERTIFICATE-----
MIICqDCCAhGgAwIBAgICEAUwDQYJKoZIhvcNAQELBQAwWDELMAkGA1UEBhMCQ04x
DjAMBgNVBAgMBUh1YmVpMQ4wDAYDVQQHDAVXdWhhbjENMAsGA1UECgwESHVzdDEM
MAoGA1UECwwDY3NlMQwwCgYDVQQDDAN3bXowHhcNMjAwNDE4MTYzOTExWhcNMjEw
NDE4MTYzOTExWjBeMQswCQYDVQQGEwJDTjEOMAwGA1UECAwFSHViZWkxDjAMBgNV
BAcMBVd1aGFuMQ0wCwYDVQQKDARIdXN0MQwwCgYDVQQLDANjc2UxEjAQBgNVBAMM
CXdtenNlcnZlcjCBnzANBgkqhkiG9w0BAQEFAAOBjQAwgYkCgYEA7KJYYi9YXEZg
N+GSHySVhI2wBRkpzD0ogQNvUh+/v1j5Ms+shyalG9URTjwZFLOTrEqUIY4vN9sh
4i1u9w9OqeOVGAPR/FVhBmd+UkYBWo5n7+WWGHZolcxiuAyd4PDDBMYyOq07aD01
B+eW0IXVc6MvGmXTuAuwpLztKSYVQSsCAwEAAaN7MHkwCQYDVR0TBAIwADAsBglg
hkgBhvhCAQ0EHxYdT3BlblNTTCBHZW5lcmF0ZWQgQ2VydGlmaWNhdGUwHQYDVR0O
BBYEFCZbSmAw2hrJoaZ9Db9Tp5K+Znn8MB8GA1UdIwQYMBaAFBlJQ7+rbqTyP30f
3Mfl0xFRCKGXMA0GCSqGSIb3DQEBCwUAA4GBAEYlKFQHDCZVvb7PdPaIXQK53Q53
4vzuY/rgNsaVLdKt/8LDmdw4pxMZb/eSp/cLKos3p3eUPzPYnGpvCXtsbnL9T8mm
C/cFcEaZ58SGtFIYonu7CVgEiNZc5O5ZD1ZLF26wyVEolKUaeSZAH5npHGQAgqG0
W7XeZlE74HkuUz27
-----END CERTIFICATE-----
